(lp1
(dp2
S'name_short'
p3
S'Alice A'
p4
sS'name_arxiv'
p5
S'Allafort_A'
p6
sS'name'
p7
S'Alice Allafort'
p8
sa(dp9
g3
S'Richard A'
p10
sg5
S'Anantua_R'
p11
sg7
S'Richard Anantua'
p12
sa(dp13
g3
S'Michael B'
p14
sg5
S'Baumer_M'
p15
sg7
S'Michael Baumer'
p16
sa(dp17
g3
S'Qingrong C'
p18
sg5
S'Chen_Qingrong'
p19
sg7
S'Qingrong Chen'
p20
sa(dp21
g3
S'William C'
p22
sg5
S'Chickering_W'
p23
sg7
S'William Chickering'
p24
sa(dp25
g3
S'Helen C'
p26
sg5
S'Craig_H'
p27
sg7
S'Helen Craig'
p28
sa(dp29
g3
S'Chris D'
p30
sg5
S'Davis_C'
p31
sg7
S'Chris Davis'
p32
sa(dp33
g3
S'Harry D'
p34
sg5
S'Desmond_H'
p35
sg7
S'Harry Desmond'
p36
sa(dp37
g3
S'Simon F'
p38
sg5
S'Foreman_S'
p39
sg7
S'Simon Foreman'
p40
sa(dp41
g3
S'Bryant G'
p42
sg5
S'Garcia_B'
p43
sg7
S'Bryant Garcia'
p44
sa(dp45
g3
S'James G'
p46
sg5
S'Grayson_J'
p47
sg7
S'James Grayson'
p48
sa(dp49
g3
S'Jae Hwan K'
p50
sg5
S'Kang_Jae_Hwan'
p51
sg7
S'Jae Hwan Kang'
p52
sa(dp53
g3
S'Julian K'
p54
sg5
S'Kates_Harbeck_J'
p55
sg7
S'Julian Kates-Harbeck'
p56
sa(dp57
g3
S'Sarah K'
p58
sg5
S'Kernasovskiy_S'
p59
sg7
S'Sarah Kernasovskiy'
p60
sa(dp61
g3
S'Rajiv K'
p62
sg5
S'Krishnakumar_R'
p63
sg7
S'Rajiv Krishnakumar'
p64
sa(dp65
g3
S'Joshua L'
p66
sg5
S'Lande_J'
p67
sg7
S'Joshua Lande'
p68
sa(dp69
g3
S'Matthew L'
p70
sg5
S'Lewandowski_M'
p71
sg7
S'Matthew Lewandowski'
p72
sa(dp73
g3
S'Peter L'
p74
sg5
S'Lewis_P'
p75
sg7
S'Peter Lewis'
p76
sa(dp77
g3
S'Tony L'
p78
sg5
S'Li_Tony'
p79
sg7
S'Tony Li'
p80
sa(dp81
g3
S'Yao-Yuan M'
p82
sg5
S'Mao_Yao_Yuan'
p83
sg7
S'Yao-Yuan Mao'
p84
sa(dp85
g3
S'Warit M'
p86
sg5
S'Mitthumsiri_W'
p87
sg7
S'Warit Mitthumsiri'
p88
sa(dp89
g3
S'Devon P'
p90
sg5
S'Powell_D'
p91
sg7
S'Devon Powell'
p92
sa(dp93
g3
S'Rachel R'
p94
sg5
S'Reddick_R'
p95
sg7
S'Rachel Reddick'
p96
sa(dp97
g3
S'Kristi S'
p98
sg5
S'Schneck_K'
p99
sg7
S'Kristi Schneck'
p100
sa(dp101
g3
S'Matt S'
p102
sg5
S'Sieth_M'
p103
sg7
S'Matt Sieth'
p104
sa(dp105
g3
S'Paul S'
p106
sg5
S'Simeon_P'
p107
sg7
S'Paul Simeon'
p108
sa(dp109
g3
S'Jamie T'
p110
sg5
S'Tolan_J'
p111
sg7
S'Jamie Tolan'
p112
sa(dp113
g3
S'Sam T'
p114
sg5
S'Totorica_S'
p115
sg7
S'Sam Totorica'
p116
sa(dp117
g3
S'Ondrej U'
p118
sg5
S'Urban_O'
p119
sg7
S'Ondrej Urban'
p120
sa(dp121
g3
S'Adam W'
p122
sg5
S'Wright_A'
p123
sg7
S'Adam Wright'
p124
sa(dp125
g3
S'Kimmy W'
p126
sg5
S'Wu_Kimmy'
p127
sg7
S'Kimmy Wu'
p128
sa(dp129
g3
S'Yajie Y'
p130
sg5
S'Yuan_Yajie'
p131
sg7
S'Yajie Yuan'
p132
sa(dp133
g3
S'Zhang Z'
p134
sg5
S'Zhang_Z'
p135
sg7
S'Zhang Zhang'
p136
sa(dp137
g3
S'Tom A'
p138
sg5
S'Abel_Tom'
p139
sg7
S'Tom Abel'
p140
sa(dp141
g3
S'Steve A'
p142
sg5
S'Allen_S'
p143
sg7
S'Steve Allen'
p144
sa(dp145
g3
S'Roger B'
p146
sg5
S'Blandford_R'
p147
sg7
S'Roger Blandford'
p148
sa(dp149
g3
S'Elliott B'
p150
sg5
S'Bloom_E'
p151
sg7
S'Elliott Bloom'
p152
sa(dp153
g3
S'Pat B'
p154
sg5
S'Burchat_P'
p155
sg7
S'Pat Burchat'
p156
sa(dp157
g3
S'David B'
p158
sg5
S'Burke_D'
p159
sg7
S'David Burke'
p160
sa(dp161
g3
S'Robert B'
p162
sg5
S'Byer_Robert'
p163
sg7
S'Robert Byer'
p164
sa(dp165
g3
S'Blas C'
p166
sg5
S'Cabrera_B'
p167
sg7
S'Blas Cabrera'
p168
sa(dp169
g3
S'Sarah C'
p170
sg5
S'Church_S'
p171
sg7
S'Sarah Church'
p172
sa(dp173
g3
S'Persis D'
p174
sg5
S'Drell_P'
p175
sg7
S'Persis Drell'
p176
sa(dp177
g3
S'Stefan F'
p178
sg5
S'Funk_Stefan'
p179
sg7
S'Stefan Funk'
p180
sa(dp181
g3
S'Peter G'
p182
sg5
S'Graham_P'
p183
sg7
S'Peter Graham'
p184
sa(dp185
g3
S'Giorgio G'
p186
sg5
S'Gratta_G'
p187
sg7
S'Giorgio Gratta'
p188
sa(dp189
g3
S'Kent I'
p190
sg5
S'Irwin_K'
p191
sg7
S'Kent Irwin'
p192
sa(dp193
g3
S'Steve K'
p194
sg5
S'Kahn_Steve'
p195
sg7
S'Steve Kahn'
p196
sa(dp197
g3
S'Chao-Lin K'
p198
sg5
S'Kuo_Chao_Lin'
p199
sg7
S'Chao-Lin Kuo'
p200
sa(dp201
g3
S'Andrei L'
p202
sg5
S'Linde_A'
p203
sg7
S'Andrei Linde'
p204
sa(dp205
g3
S'Bruce M'
p206
sg5
S'Macintosh_B'
p207
sg7
S'Bruce Macintosh'
p208
sa(dp209
g3
S'Peter M'
p210
sg5
S'Michelson_P'
p211
sg7
S'Peter Michelson'
p212
sa(dp213
g3
S'Vahe P'
p214
sg5
S'Petrosian_V'
p215
sg7
S'Vahe Petrosian'
p216
sa(dp217
g3
S'Roger R'
p218
sg5
S'Romani_R'
p219
sg7
S'Roger Romani'
p220
sa(dp221
g3
S'Aaron R'
p222
sg5
S'Roodman_A'
p223
sg7
S'Aaron Roodman'
p224
sa(dp225
g3
S'Phil S'
p226
sg5
S'Scherrer_P'
p227
sg7
S'Phil Scherrer'
p228
sa(dp229
g3
S'Rafe S'
p230
sg5
S'Schindler_R'
p231
sg7
S'Rafe Schindler'
p232
sa(dp233
g3
S'Leonardo S'
p234
sg5
S'Senatore_L'
p235
sg7
S'Leonardo Senatore'
p236
sa(dp237
g3
S'Peter S'
p238
sg5
S'Sturrock_P'
p239
sg7
S'Peter Sturrock'
p240
sa(dp241
g3
S'Bob W'
p242
sg5
S'Wagoner_B'
p243
sg7
S'Bob Wagoner'
p244
sa(dp245
g3
S'Risa W'
p246
sg5
S'Wechsler_R'
p247
sg7
S'Risa Wechsler'
p248
sa(dp249
g3
S'Zeesh A'
p250
sg5
S'Ahmed_Z'
p251
sg7
S'Zeesh Ahmed'
p252
sa(dp253
g3
S'Matthew B'
p254
sg5
S'Becker_M'
p255
sg7
S'Matthew Becker'
p256
sa(dp257
g3
S'Rebecca C'
p258
sg5
S'Canning_R'
p259
sg7
S'Rebecca Canning'
p260
sa(dp261
g3
S'Chao C'
p262
sg5
S'Chang_C'
p263
sg7
S'Chao Chang'
p264
sa(dp265
g3
S'Peter den H'
p266
sg5
S'Hartog_P_d'
p267
sg7
S'Peter den Hartog'
p268
sa(dp269
g3
S'Kiruthika D'
p270
sg5
S'Devaraj_K'
p271
sg7
S'Kiruthika Devaraj'
p272
sa(dp273
g3
S'William E'
p274
sg5
S'East_William'
p275
sg7
S'William East'
p276
sa(dp277
g3
S'Anna F'
p278
sg5
S'Franckowiak_A'
p279
sg7
S'Anna Franckowiak'
p280
sa(dp281
g3
S'Amy F'
p282
sg5
S'Furniss_A'
p283
sg7
S'Amy Furniss'
p284
sa(dp285
g3
S'Yashar H'
p286
sg5
S'Hezaveh_Y'
p287
sg7
S'Yashar Hezavehe'
p288
sa(dp289
g3
S'Julie H'
p290
sg5
S'Hlavacek_Larrondo_J'
p291
sg7
S'Julie Hlavacek-Larrondo'
p292
sa(dp293
g3
S'Patrick I'
p294
sg5
S'Ingraham_P'
p295
sg7
S'Patrick Ingraham'
p296
sa(dp297
g3
S'Tobias J'
p298
sg5
S'Jogler_T'
p299
sg7
S'Tobias Jogler'
p300
sa(dp301
g3
S'Ryan K'
p302
sg5
S'Keisler_R'
p303
sg7
S'Ryan Keisler'
p304
sa(dp305
g3
S'Matthew K'
p306
sg5
S'Kistler_M'
p307
sg7
S'Matthew Kistler'
p308
sa(dp309
g3
S'Yu L'
p310
sg5
S'Lu_Yu'
p311
sg7
S'Yu Lu'
p312
sa(dp313
g3
S'Philipp M'
p314
sg5
S'Mertsch_P'
p315
sg7
S'Philipp Mertsch'
p316
sa(dp317
g3
S'Joshua M'
p318
sg5
S'Meyers_J'
p319
sg7
S'Joshua Meyers'
p320
sa(dp321
g3
S'Walter O'
p322
sg5
S'Ogburn_W'
p323
sg7
S'Walter Ogburn'
p324
sa(dp325
g3
S'Fatima Rubio d'
p326
sg5
S'da_Costa_F_R'
p327
sg7
S'Fatima Rubio da Costa'
p328
sa(dp329
g3
S'Miguel S'
p330
sg5
S'Sanchez_Conde_M'
p331
sg7
S'Miguel Sanchez-Conde'
p332
sa(dp333
g3
S'Aurora S'
p334
sg5
S'Simionescu_A'
p335
sg7
S'Aurora Simionescu'
p336
sa(dp337
g3
S'Sam S'
p338
sg5
S'Skillman_S'
p339
sg7
S'Sam Skillman'
p340
sa(dp341
g3
S'Luigi T'
p342
sg5
S'Tibaldo_L'
p343
sg7
S'Luigi Tibaldo'
p344
sa(dp345
g3
S'Giacomo V'
p346
sg5
S'Vianello_G'
p347
sg7
S'Giacomo Vianello'
p348
sa(dp349
g3
S'Christopher W'
p350
sg5
S'Williams_C'
p351
sg7
S'Christopher Williams'
p352
sa(dp353
g3
S'Matthew W'
p354
sg5
S'Wood_Matthew'
p355
sg7
S'Matthew Wood'
p356
sa(dp357
g3
S'Weiqun Z'
p358
sg5
S'Zhang_W'
p359
sg7
S'Weiqun Zhang'
p360
sa(dp361
g3
S'Irina Z'
p362
sg5
S'Zhuravleva_I'
p363
sg7
S'Irina Zhuravleva'
p364
sa(dp365
g3
S'Jonathan Z'
p366
sg5
S'Zrake_J'
p367
sg7
S'Jonathan Zrake'
p368
sa(dp369
g3
S'Andrea A'
p370
sg5
S'Albert_A'
p371
sg7
S'Andrea Albert'
p372
sa(dp373
g3
S'Debbie B'
p374
sg5
S'Bard_Debbie'
p375
sg7
S'Debbie Bard'
p376
sa(dp377
g3
S'Michael B'
p378
sg5
S'Busha_M'
p379
sg7
S'Michael Busha'
p380
sa(dp381
g3
S'Carlos C'
p382
sg5
S'Cunha_C'
p383
sg7
S'Carlos Cunha'
p384
sa(dp385
g3
S'Dmitry M'
p386
sg5
S'Malyshev_D'
p387
sg7
S'Dmitry Malyshev'
p388
sa(dp389
g3
S'Elena O'
p390
sg5
S'Orlando_E'
p391
sg7
S'Elena Orlando'
p392
sa(dp393
g3
S'Eduardo R'
p394
sg5
S'Rozo_Eduardo'
p395
sg7
S'Eduardo Rozo'
p396
sa(dp397
g3
S'Norbert W'
p398
sg5
S'Werner_N'
p399
sg7
S'Norbert Werner'
p400
sa(dp401
g3
S'Ron A'
p402
sg5
S'Adler_R'
p403
sg7
S'Ron Adler'
p404
sa(dp405
g3
S'Mark A'
p406
sg5
S'Arndt_M'
p407
sg7
S'Mark Arndt'
p408
sa(dp409
g3
S'Makoto A'
p410
sg5
S'Asai_Makoto'
p411
sg7
S'Makoto Asai'
p412
sa(dp413
g3
S'Joanne B'
p414
sg5
S'Bogart_J'
p415
sg7
S'Joanne Bogart'
p416
sa(dp417
g3
S'Anders B'
p418
sg5
S'Borgland_A'
p419
sg7
S'Anders Borgland'
p420
sa(dp421
g3
S'Eugenio B'
p422
sg5
S'Bottacini_E'
p423
sg7
S'Eugenio Bottacini'
p424
sa(dp425
g3
S'Paul B'
p426
sg5
S'Brink_P'
p427
sg7
S'Paul Brink'
p428
sa(dp429
g3
S'Rob C'
p430
sg5
S'Cameron_R'
p431
sg7
S'Rob Cameron'
p432
sa(dp433
g3
S'Eric C'
p434
sg5
S'Charles_E'
p435
sg7
S'Eric Charles'
p436
sa(dp437
g3
S'Jim C'
p438
sg5
S'Chiang_J'
p439
sg7
S'Jim Chiang'
p440
sa(dp441
g3
S'Shantha C'
p442
sg5
S'Condamoor_S'
p443
sg7
S'Shantha Condamoor'
p444
sa(dp445
g3
S'Seth D'
p446
sg5
S'Digel_S'
p447
sg7
S'Seth Digel'
p448
sa(dp449
g3
S'Richard D'
p450
sg5
S'Dubois_R'
p451
sg7
S'Richard Dubois'
p452
sa(dp453
g3
S'Gregory D'
p454
sg5
S'Dubois_Felsmann_G'
p455
sg7
S'Gregory Dubois-Felsmann'
p456
sa(dp457
g3
S'Daniel F'
p458
sg5
S'Flath_D'
p459
sg7
S'Daniel Flath'
p460
sa(dp461
g3
S'Warren F'
p462
sg5
S'Focke_W'
p463
sg7
S'Warren Focke'
p464
sa(dp465
g3
S'John F'
p466
sg5
S'Fox_John'
p467
sg7
S'John Fox'
p468
sa(dp469
g3
S'Kirk G'
p470
sg5
S'Gilmore_K'
p471
sg7
S'Kirk Gilmore'
p472
sa(dp473
g3
S'Thomas G'
p474
sg5
S'Glanzman_T'
p475
sg7
S'Thomas Glanzman'
p476
sa(dp477
g3
S'Gary G'
p478
sg5
S'Godfrey_G'
p479
sg7
S'Gary Godfrey'
p480
sa(dp481
g3
S'Charlotte H'
p482
sg5
S'Hee_Charlotte'
p483
sg7
S'Charlotte Hee'
p484
sa(dp485
g3
S'Karen H'
p486
sg5
S'Heidenreich_K'
p487
sg7
S'Karen Heidenreich'
p488
sa(dp489
g3
S'Todd H'
p490
sg5
S'Hoeksema_T'
p491
sg7
S'Todd Hoeksema'
p492
sa(dp493
g3
S'Walter I'
p494
sg5
S'Innes_W'
p495
sg7
S'Walter Innes'
p496
sa(dp497
g3
S'Ralf K'
p498
sg5
S'Kaehler_R'
p499
sg7
S'Ralf Kaehler'
p500
sa(dp501
g3
S'Heather K'
p502
sg5
S'Kelly_H'
p503
sg7
S'Heather Kelly'
p504
sa(dp505
g3
S'Nadine K'
p506
sg5
S'Kurita_N'
p507
sg7
S'Nadine Kurita'
p508
sa(dp509
g3
S'Greg M'
p510
sg5
S'Madejski_G'
p511
sg7
S'Greg Madejski'
p512
sa(dp513
g3
S'Phil M'
p514
sg5
S'Marshall_P'
p515
sg7
S'Phil Marshall'
p516
sa(dp517
g3
S'Stuart M'
p518
sg5
S'Marshall_S'
p519
sg7
S'Stuart Marshall'
p520
sa(dp521
g3
S'John M'
p522
sg5
S'Mester_J'
p523
sg7
S'John Mester'
p524
sa(dp525
g3
S'Marie Elena M'
p526
sg5
S'Monzani_M_E'
p527
sg7
S'Marie Elena Monzani'
p528
sa(dp529
g3
S'Glenn M'
p530
sg5
S'Morris_G'
p531
sg7
S'Glenn Morris'
p532
sa(dp533
g3
S'Igor M'
p534
sg5
S'Moskalenko_I'
p535
sg7
S'Igor Moskalenko'
p536
sa(dp537
g3
S'Johnny N'
p538
sg5
S'Ng_Johnny'
p539
sg7
S'Johnny Ng'
p540
sa(dp541
g3
S'James P'
p542
sg5
S'Panetta_J'
p543
sg7
S'James Panetta'
p544
sa(dp545
g3
S'Richard P'
p546
sg5
S'Partridge_R'
p547
sg7
S'Richard Partridge'
p548
sa(dp549
g3
S'Troy P'
p550
sg5
S'Porter_T'
p551
sg7
S'Troy Porter'
p552
sa(dp553
g3
S'Andrew R'
p554
sg5
S'Rasmussen_A'
p555
sg7
S'Andrew Rasmussen'
p556
sa(dp557
g3
S'Kevin R'
p558
sg5
S'Reil_Kevin'
p559
sg7
S'Kevin Reil'
p560
sa(dp561
g3
S'Leon R'
p562
sg5
S'Rochester_L'
p563
sg7
S'Leon Rochester'
p564
sa(dp565
g3
S'James R'
p566
sg5
S'Russell_J'
p567
sg7
S'James Russell'
p568
sa(dp569
g3
S'Eli R'
p570
sg5
S'Rykoff_E'
p571
sg7
S'Eli Rykoff'
p572
sa(dp573
g3
S'Owen S'
p574
sg5
S'Saxton_O'
p575
sg7
S'Owen Saxton'
p576
sa(dp577
g3
S'Stephen T'
p578
sg5
S'Tether_S'
p579
sg7
S'Stephen Tether'
p580
sa(dp581
g3
S'Gregg T'
p582
sg5
S'Thayer_G'
p583
sg7
S'Gregg Thayer'
p584
sa(dp585
g3
S'Jana T'
p586
sg5
S'Thayer_J'
p587
sg7
S'Jana Thayer'
p588
sa(dp589
g3
S'Tracy U'
p590
sg5
S'Usher_T'
p591
sg7
S'Tracy Usher'
p592
sa(dp593
g3
S'Daniel Van W'
p594
sg5
S'Winkle_D_V'
p595
sg7
S'Daniel Van Winkle'
p596
sa(dp597
g3
S'Anthony W'
p598
sg5
S'Waite_A'
p599
sg7
S'Anthony Waite'
p600
sa(dp601
g3
S'Ki Won Y'
p602
sg5
S'Yoon_Ki_Won'
p603
sg7
S'Ki Won Yoon'
p604
sa.